target datalayout = "e-m:e-p270:32:32-p271:32:32-p272:64:64-i64:64-i128:128-f80:128-n8:16:32:64-S128"
target triple = "x86_64-pc-linux-gnu"

%class.Register = type { i32 }
%class.XMMRegister = type { i32 }
%class.Address = type { %class.Register, %class.Register, %class.XMMRegister, i32, i32, i8, [3 x i8], %class.RelocationHolder }
%class.RelocationHolder = type { [40 x i8] }
%class.markWord = type { i64 }
%class.Relocation = type <{ ptr, ptr, i32, [4 x i8] }>
%class.anon.4 = type { i8 }
%class.oopDesc = type { %class.markWord, %"union.oopDesc::_metadata" }
%"union.oopDesc::_metadata" = type { ptr }

@.str = private unnamed_addr constant [42 x i8] c"src/hotspot/cpu/x86/templateTable_x86.cpp\00", align 1
@_ZN13TemplateTable5_masmE = external global ptr, align 8
@_ZL5noreg = internal constant %class.Register { i32 -1 }, align 4
@_ZL3rax = internal constant %class.Register zeroinitializer, align 4
@_ZL3rdx = internal constant %class.Register { i32 2 }, align 4
@UseCompressedOops = external global i8, align 1
@_ZL6xnoreg = internal constant %class.XMMRegister { i32 -1 }, align 4
@_ZTV10Relocation = external unnamed_addr constant { [11 x ptr] }, align 8
@UseCompressedClassPointers = external global i8, align 1
@PrintInterpreter = external global i8, align 1

; Function Attrs: mustprogress nounwind uwtable
define linkonce_odr hidden void @_ZN10RelocationC2EN9relocInfo9relocTypeE(ptr noundef nonnull align 8 dereferenceable(20) %0, i32 noundef %1) unnamed_addr #1 comdat align 2 {
  %3 = alloca ptr, align 8
  %4 = alloca i32, align 4
  store ptr %0, ptr %3, align 8
  store i32 %1, ptr %4, align 4
  %5 = load ptr, ptr %3, align 8
  store ptr getelementptr inbounds inrange(-16, 72) ({ [11 x ptr] }, ptr @_ZTV10Relocation, i32 0, i32 0, i32 2), ptr %5, align 8
  %6 = getelementptr inbounds %class.Relocation, ptr %5, i32 0, i32 1
  store ptr null, ptr %6, align 8
  %7 = getelementptr inbounds %class.Relocation, ptr %5, i32 0, i32 2
  %8 = load i32, ptr %4, align 4
  store i32 %8, ptr %7, align 8
  ret void
}

; Function Attrs: mustprogress nounwind uwtable
define linkonce_odr hidden noundef i64 @_ZZN7oopDesc21klass_offset_in_bytesEvENKUlvE_clEv(ptr noundef nonnull align 1 dereferenceable(1) %0) #1 comdat align 2 {
  %2 = alloca ptr, align 8
  %3 = alloca [16 x i8], align 16
  %4 = alloca ptr, align 8
  %5 = alloca ptr, align 8
  store ptr %0, ptr %2, align 8
  %6 = getelementptr inbounds [16 x i8], ptr %3, i64 0, i64 0
  store ptr %6, ptr %4, align 8
  %7 = load ptr, ptr %4, align 8
  %8 = getelementptr inbounds %class.oopDesc, ptr %7, i32 0, i32 1
  store ptr %8, ptr %5, align 8
  %9 = load ptr, ptr %5, align 8
  %10 = getelementptr inbounds [16 x i8], ptr %3, i64 0, i64 0
  %11 = ptrtoint ptr %9 to i64
  %12 = ptrtoint ptr %10 to i64
  %13 = sub i64 %11, %12
  ret i64 %13
}

; Function Attrs: mustprogress nounwind uwtable
define linkonce_odr hidden void @_ZN10RelocationC2Ev(ptr noundef nonnull align 8 dereferenceable(20) %0) unnamed_addr #1 comdat align 2 {
  %2 = alloca ptr, align 8
  store ptr %0, ptr %2, align 8
  %3 = load ptr, ptr %2, align 8
  call void @_ZN10RelocationC2EN9relocInfo9relocTypeE(ptr noundef nonnull align 8 dereferenceable(20) %3, i32 noundef 0)
  ret void
}

; Function Attrs: mustprogress nounwind uwtable
define linkonce_odr hidden noundef i32 @_ZN7oopDesc21klass_offset_in_bytesEv() #1 comdat align 2 {
  %1 = alloca %class.anon.4, align 1
  %2 = call noundef i64 @_ZZN7oopDesc21klass_offset_in_bytesEvENKUlvE_clEv(ptr noundef nonnull align 1 dereferenceable(1) %1)
  %3 = trunc i64 %2 to i32
  ret i32 %3
}

; Function Attrs: mustprogress nounwind uwtable
define linkonce_odr hidden void @_ZN16RelocationHolder18emplace_relocationI10RelocationJEEEvDpRKT0_(ptr noundef nonnull align 8 dereferenceable(40) %0) #1 comdat align 2 {
  %2 = alloca ptr, align 8
  %3 = alloca ptr, align 8
  store ptr %0, ptr %2, align 8
  %4 = load ptr, ptr %2, align 8
  %5 = getelementptr inbounds %class.RelocationHolder, ptr %4, i32 0, i32 0
  %6 = getelementptr inbounds [40 x i8], ptr %5, i64 0, i64 0
  call void @_ZN10RelocationC2Ev(ptr noundef nonnull align 8 dereferenceable(20) %6)
  store ptr %6, ptr %3, align 8
  ret void
}

; Function Attrs: mustprogress nounwind uwtable
define linkonce_odr hidden noundef i32 @_ZN7oopDesc25klass_gap_offset_in_bytesEv() #1 comdat align 2 {
  %1 = call noundef i32 @_ZN7oopDesc21klass_offset_in_bytesEv()
  %2 = sext i32 %1 to i64
  %3 = add i64 %2, 4
  %4 = trunc i64 %3 to i32
  ret i32 %4
}

; Function Attrs: mustprogress nounwind uwtable
define linkonce_odr hidden void @_ZN16RelocationHolderC2I10RelocationJEEENS_9ConstructIT_EEDpRKT0_(ptr noundef nonnull align 8 dereferenceable(40) %0) unnamed_addr #1 comdat align 2 {
  %2 = alloca ptr, align 8
  store ptr %0, ptr %2, align 8
  %3 = load ptr, ptr %2, align 8
  call void @_ZN16RelocationHolder18emplace_relocationI10RelocationJEEEvDpRKT0_(ptr noundef nonnull align 8 dereferenceable(40) %3)
  ret void
}

; Function Attrs: mustprogress nounwind uwtable
define linkonce_odr hidden noundef i64 @_Z10align_downImiTnNSt9enable_ifIXcvbsr3std11is_integralIT_EE5valueEiE4typeELi0EES1_S1_T0_(i64 noundef %0, i32 noundef %1) #1 comdat {
  %3 = alloca i64, align 8
  %4 = alloca i32, align 4
  %5 = alloca i64, align 8
  store i64 %0, ptr %3, align 8
  store i32 %1, ptr %4, align 4
  %6 = load i64, ptr %3, align 8
  %7 = load i32, ptr %4, align 4
  %8 = call noundef i32 @_ZL14alignment_maskIiTnNSt9enable_ifIXcvbsr3std11is_integralIT_EE5valueEiE4typeELi0EES1_S1_(i32 noundef %7)
  %9 = sext i32 %8 to i64
  %10 = xor i64 %9, -1
  %11 = and i64 %6, %10
  store i64 %11, ptr %5, align 8
  %12 = load i64, ptr %5, align 8
  ret i64 %12
}

; Function Attrs: mustprogress nounwind uwtable
define linkonce_odr hidden noundef i64 @_Z12checked_castImmET_T0_(i64 noundef %0) #1 comdat {
  %2 = alloca i64, align 8
  %3 = alloca i64, align 8
  store i64 %0, ptr %2, align 8
  %4 = load i64, ptr %2, align 8
  store i64 %4, ptr %3, align 8
  %5 = load i64, ptr %3, align 8
  ret i64 %5
}

; Function Attrs: mustprogress nounwind uwtable
define internal noundef i32 @_ZL14alignment_maskIiTnNSt9enable_ifIXcvbsr3std11is_integralIT_EE5valueEiE4typeELi0EES1_S1_(i32 noundef %0) #1 {
  %2 = alloca i32, align 4
  store i32 %0, ptr %2, align 4
  %3 = load i32, ptr %2, align 4
  %4 = sub nsw i32 %3, 1
  ret i32 %4
}

; Function Attrs: mustprogress nounwind uwtable
define linkonce_odr hidden noundef i32 @_ZN12arrayOopDesc22length_offset_in_bytesEv() #1 comdat align 2 {
  %1 = load i8, ptr @UseCompressedClassPointers, align 1
  %2 = trunc i8 %1 to i1
  br i1 %2, label %3, label %6

3:                                                ; preds = %0
  %4 = call noundef i32 @_ZN7oopDesc25klass_gap_offset_in_bytesEv()
  %5 = sext i32 %4 to i64
  br label %7

6:                                                ; preds = %0
  br label %7

7:                                                ; preds = %6, %3
  %8 = phi i64 [ %5, %3 ], [ 16, %6 ]
  %9 = trunc i64 %8 to i32
  ret i32 %9
}

; Function Attrs: mustprogress nounwind uwtable
define linkonce_odr hidden void @_ZN16RelocationHolderC2Ev(ptr noundef nonnull align 8 dereferenceable(40) %0) unnamed_addr #1 comdat align 2 {
  %2 = alloca ptr, align 8
  store ptr %0, ptr %2, align 8
  %3 = load ptr, ptr %2, align 8
  call void @_ZN16RelocationHolderC2I10RelocationJEEENS_9ConstructIT_EEDpRKT0_(ptr noundef nonnull align 8 dereferenceable(40) %3)
  ret void
}

; Function Attrs: mustprogress nounwind uwtable
define linkonce_odr hidden noundef i64 @_Z8align_upImiTnNSt9enable_ifIXcvbsr3std11is_integralIT_EE5valueEiE4typeELi0EES1_S1_T0_(i64 noundef %0, i32 noundef %1) #1 comdat {
  %3 = alloca i64, align 8
  %4 = alloca i32, align 4
  %5 = alloca i64, align 8
  store i64 %0, ptr %3, align 8
  store i32 %1, ptr %4, align 4
  %6 = load i64, ptr %3, align 8
  %7 = load i32, ptr %4, align 4
  %8 = call noundef i32 @_ZL14alignment_maskIiTnNSt9enable_ifIXcvbsr3std11is_integralIT_EE5valueEiE4typeELi0EES1_S1_(i32 noundef %7)
  %9 = sext i32 %8 to i64
  %10 = add i64 %6, %9
  %11 = call noundef i64 @_Z12checked_castImmET_T0_(i64 noundef %10)
  store i64 %11, ptr %5, align 8
  %12 = load i64, ptr %5, align 8
  %13 = load i32, ptr %4, align 4
  %14 = call noundef i64 @_Z10align_downImiTnNSt9enable_ifIXcvbsr3std11is_integralIT_EE5valueEiE4typeELi0EES1_S1_T0_(i64 noundef %12, i32 noundef %13)
  ret i64 %14
}

; Function Attrs: mustprogress nounwind uwtable
define linkonce_odr hidden noundef zeroext i1 @_ZN12arrayOopDesc30element_type_should_be_alignedE9BasicType(i8 noundef zeroext %0) #1 comdat align 2 {
  %2 = alloca i1, align 1
  %3 = alloca i8, align 1
  store i8 %0, ptr %3, align 1
  %4 = load i8, ptr %3, align 1
  %5 = zext i8 %4 to i32
  %6 = icmp eq i32 %5, 12
  br i1 %6, label %11, label %7

7:                                                ; preds = %1
  %8 = load i8, ptr %3, align 1
  %9 = zext i8 %8 to i32
  %10 = icmp eq i32 %9, 13
  br i1 %10, label %11, label %15

11:                                               ; preds = %7, %1
  %12 = load i8, ptr @UseCompressedOops, align 1
  %13 = trunc i8 %12 to i1
  %14 = xor i1 %13, true
  store i1 %14, ptr %2, align 1
  br label %25

15:                                               ; preds = %7
  %16 = load i8, ptr %3, align 1
  %17 = zext i8 %16 to i32
  %18 = icmp eq i32 %17, 7
  br i1 %18, label %23, label %19

19:                                               ; preds = %15
  %20 = load i8, ptr %3, align 1
  %21 = zext i8 %20 to i32
  %22 = icmp eq i32 %21, 11
  br label %23

23:                                               ; preds = %19, %15
  %24 = phi i1 [ true, %15 ], [ %22, %19 ]
  store i1 %24, ptr %2, align 1
  br label %25

25:                                               ; preds = %23, %11
  %26 = load i1, ptr %2, align 1
  ret i1 %26
}

; Function Attrs: mustprogress nounwind uwtable
define linkonce_odr hidden noundef i32 @_ZN12arrayOopDesc20header_size_in_bytesEv() #1 comdat align 2 {
  %1 = alloca i64, align 8
  %2 = call noundef i32 @_ZN12arrayOopDesc22length_offset_in_bytesEv()
  %3 = sext i32 %2 to i64
  %4 = add i64 %3, 4
  store i64 %4, ptr %1, align 8
  %5 = load i64, ptr %1, align 8
  %6 = trunc i64 %5 to i32
  ret i32 %6
}

; Function Attrs: mustprogress nounwind uwtable
define linkonce_odr hidden void @_ZN7AddressC2E8RegisterS0_NS_11ScaleFactorEi(ptr noundef nonnull align 8 dereferenceable(64) %0, i32 %1, i32 %2, i32 noundef %3, i32 noundef %4) unnamed_addr #1 comdat align 2 {
  %6 = alloca %class.Register, align 4
  %7 = alloca %class.Register, align 4
  %8 = alloca ptr, align 8
  %9 = alloca i32, align 4
  %10 = alloca i32, align 4
  %11 = getelementptr inbounds %class.Register, ptr %6, i32 0, i32 0
  store i32 %1, ptr %11, align 4
  %12 = getelementptr inbounds %class.Register, ptr %7, i32 0, i32 0
  store i32 %2, ptr %12, align 4
  store ptr %0, ptr %8, align 8
  store i32 %3, ptr %9, align 4
  store i32 %4, ptr %10, align 4
  %13 = load ptr, ptr %8, align 8
  %14 = getelementptr inbounds %class.Address, ptr %13, i32 0, i32 0
  call void @llvm.memcpy.p0.p0.i64(ptr align 8 %14, ptr align 4 %6, i64 4, i1 false)
  %15 = getelementptr inbounds %class.Address, ptr %13, i32 0, i32 1
  call void @llvm.memcpy.p0.p0.i64(ptr align 4 %15, ptr align 4 %7, i64 4, i1 false)
  %16 = getelementptr inbounds %class.Address, ptr %13, i32 0, i32 2
  call void @llvm.memcpy.p0.p0.i64(ptr align 8 %16, ptr align 4 @_ZL6xnoreg, i64 4, i1 false)
  %17 = getelementptr inbounds %class.Address, ptr %13, i32 0, i32 3
  %18 = load i32, ptr %9, align 4
  store i32 %18, ptr %17, align 4
  %19 = getelementptr inbounds %class.Address, ptr %13, i32 0, i32 4
  %20 = load i32, ptr %10, align 4
  store i32 %20, ptr %19, align 8
  %21 = getelementptr inbounds %class.Address, ptr %13, i32 0, i32 5
  store i8 0, ptr %21, align 4
  %22 = getelementptr inbounds %class.Address, ptr %13, i32 0, i32 7
  call void @_ZN16RelocationHolderC2Ev(ptr noundef nonnull align 8 dereferenceable(40) %22)
  ret void
}

; Function Attrs: mustprogress nounwind uwtable
define linkonce_odr hidden noundef i32 @_ZN12arrayOopDesc20base_offset_in_bytesE9BasicType(i8 noundef zeroext %0) #1 comdat align 2 {
  %2 = alloca i8, align 1
  %3 = alloca i64, align 8
  store i8 %0, ptr %2, align 1
  %4 = call noundef i32 @_ZN12arrayOopDesc20header_size_in_bytesEv()
  %5 = sext i32 %4 to i64
  store i64 %5, ptr %3, align 8
  %6 = load i8, ptr %2, align 1
  %7 = call noundef zeroext i1 @_ZN12arrayOopDesc30element_type_should_be_alignedE9BasicType(i8 noundef zeroext %6)
  br i1 %7, label %8, label %11

8:                                                ; preds = %1
  %9 = load i64, ptr %3, align 8
  %10 = call noundef i64 @_Z8align_upImiTnNSt9enable_ifIXcvbsr3std11is_integralIT_EE5valueEiE4typeELi0EES1_S1_T0_(i64 noundef %9, i32 noundef 8)
  br label %13

11:                                               ; preds = %1
  %12 = load i64, ptr %3, align 8
  br label %13

13:                                               ; preds = %11, %8
  %14 = phi i64 [ %10, %8 ], [ %12, %11 ]
  %15 = trunc i64 %14 to i32
  ret i32 %15
}

; Function Attrs: mustprogress nounwind uwtable
define linkonce_odr hidden noundef ptr @_ZN12Disassembler4hookI25InterpreterMacroAssemblerEEPT_PKciS3_(ptr noundef %0, i32 noundef %1, ptr noundef %2) #1 comdat align 2 {
  %4 = alloca ptr, align 8
  %5 = alloca i32, align 4
  %6 = alloca ptr, align 8
  store ptr %0, ptr %4, align 8
  store i32 %1, ptr %5, align 4
  store ptr %2, ptr %6, align 8
  %7 = load i8, ptr @PrintInterpreter, align 1
  %8 = trunc i8 %7 to i1
  br i1 %8, label %9, label %13

9:                                                ; preds = %3
  %10 = load ptr, ptr %4, align 8
  %11 = load i32, ptr %5, align 4
  %12 = load ptr, ptr %6, align 8
  call void @_ZN12Disassembler5_hookEPKciP14MacroAssembler(ptr noundef %10, i32 noundef %11, ptr noundef %12)
  br label %13

13:                                               ; preds = %9, %3
  %14 = load ptr, ptr %6, align 8
  ret ptr %14
}

; Function Attrs: mustprogress nounwind uwtable
define hidden void @_ZN13TemplateTable11index_checkE8RegisterS0_(i32 %0, i32 %1) #1 align 2 {
  %3 = alloca %class.Register, align 4
  %4 = alloca %class.Register, align 4
  %5 = alloca %class.Register, align 4
  %6 = alloca %class.Register, align 4
  %7 = alloca %class.Register, align 4
  %8 = getelementptr inbounds %class.Register, ptr %3, i32 0, i32 0
  store i32 %0, ptr %8, align 4
  %9 = getelementptr inbounds %class.Register, ptr %4, i32 0, i32 0
  store i32 %1, ptr %9, align 4
  %10 = load ptr, ptr @_ZN13TemplateTable5_masmE, align 8
  %11 = call noundef ptr @_ZN12Disassembler4hookI25InterpreterMacroAssemblerEEPT_PKciS3_(ptr noundef @.str, i32 noundef 758, ptr noundef %10)
  call void @llvm.memcpy.p0.p0.i64(ptr align 4 %5, ptr align 4 %3, i64 4, i1 false)
  %12 = getelementptr inbounds %class.Register, ptr %5, i32 0, i32 0
  %13 = load i32, ptr %12, align 4
  call void @_ZN25InterpreterMacroAssembler7pop_ptrE8Register(ptr noundef nonnull align 8 dereferenceable(48) %11, i32 %13)
  call void @llvm.memcpy.p0.p0.i64(ptr align 4 %6, ptr align 4 %3, i64 4, i1 false)
  call void @llvm.memcpy.p0.p0.i64(ptr align 4 %7, ptr align 4 %4, i64 4, i1 false)
  %14 = getelementptr inbounds %class.Register, ptr %6, i32 0, i32 0
  %15 = load i32, ptr %14, align 4
  %16 = getelementptr inbounds %class.Register, ptr %7, i32 0, i32 0
  %17 = load i32, ptr %16, align 4
  call void @_ZN13TemplateTable23index_check_without_popE8RegisterS0_(i32 %15, i32 %17)
  ret void
}

; Function Attrs: mustprogress nounwind uwtable
define hidden void @_ZN13TemplateTable6caloadEv() #1 align 2 {
  %1 = alloca %class.Register, align 4
  %2 = alloca %class.Register, align 4
  %3 = alloca %class.Register, align 4
  %4 = alloca %class.Address, align 8
  %5 = alloca %class.Register, align 4
  %6 = alloca %class.Register, align 4
  %7 = alloca %class.Register, align 4
  %8 = alloca %class.Register, align 4
  call void @_ZN13TemplateTable10transitionE8TosStateS0_(i32 noundef 4, i32 noundef 4)
  call void @llvm.memcpy.p0.p0.i64(ptr align 4 %1, ptr align 4 @_ZL3rdx, i64 4, i1 false)
  call void @llvm.memcpy.p0.p0.i64(ptr align 4 %2, ptr align 4 @_ZL3rax, i64 4, i1 false)
  %9 = getelementptr inbounds %class.Register, ptr %1, i32 0, i32 0
  %10 = load i32, ptr %9, align 4
  %11 = getelementptr inbounds %class.Register, ptr %2, i32 0, i32 0
  %12 = load i32, ptr %11, align 4
  call void @_ZN13TemplateTable11index_checkE8RegisterS0_(i32 %10, i32 %12)
  %13 = load ptr, ptr @_ZN13TemplateTable5_masmE, align 8
  %14 = call noundef ptr @_ZN12Disassembler4hookI25InterpreterMacroAssemblerEEPT_PKciS3_(ptr noundef @.str, i32 noundef 859, ptr noundef %13)
  call void @llvm.memcpy.p0.p0.i64(ptr align 4 %3, ptr align 4 @_ZL3rax, i64 4, i1 false)
  call void @llvm.memcpy.p0.p0.i64(ptr align 4 %5, ptr align 4 @_ZL3rdx, i64 4, i1 false)
  call void @llvm.memcpy.p0.p0.i64(ptr align 4 %6, ptr align 4 @_ZL3rax, i64 4, i1 false)
  %15 = call noundef i32 @_ZN12arrayOopDesc20base_offset_in_bytesE9BasicType(i8 noundef zeroext 5)
  %16 = getelementptr inbounds %class.Register, ptr %5, i32 0, i32 0
  %17 = load i32, ptr %16, align 4
  %18 = getelementptr inbounds %class.Register, ptr %6, i32 0, i32 0
  %19 = load i32, ptr %18, align 4
  call void @_ZN7AddressC2E8RegisterS0_NS_11ScaleFactorEi(ptr noundef nonnull align 8 dereferenceable(64) %4, i32 %17, i32 %19, i32 noundef 1, i32 noundef %15)
  call void @llvm.memcpy.p0.p0.i64(ptr align 4 %7, ptr align 4 @_ZL5noreg, i64 4, i1 false)
  call void @llvm.memcpy.p0.p0.i64(ptr align 4 %8, ptr align 4 @_ZL5noreg, i64 4, i1 false)
  %20 = getelementptr inbounds %class.Register, ptr %3, i32 0, i32 0
  %21 = load i32, ptr %20, align 4
  %22 = getelementptr inbounds %class.Register, ptr %7, i32 0, i32 0
  %23 = load i32, ptr %22, align 4
  %24 = getelementptr inbounds %class.Register, ptr %8, i32 0, i32 0
  %25 = load i32, ptr %24, align 4
  call void @_ZN14MacroAssembler14access_load_atE9BasicTypem8Register7AddressS1_S1_(ptr noundef nonnull align 8 dereferenceable(40) %14, i8 noundef zeroext 5, i64 noundef 2359296, i32 %21, ptr noundef %4, i32 %23, i32 %25)
  ret void
}